; Function Attrs: mustprogress nofree norecurse nosync nounwind willreturn memory(read, inaccessiblemem: none) uwtable
define hidden noundef zeroext i1 @_ZNK19OpenColorIO_v2_4dev11Lut1DOpData10mayComposeERSt10shared_ptrIKS0_E(ptr nocapture noundef nonnull readonly align 8 dereferenceable(364) %this, ptr nocapture noundef nonnull readonly align 8 dereferenceable(16) %other) local_unnamed_addr #13 align 2 {
entry:
  %m_hueAdjust.i = getelementptr inbounds i8, ptr %this, i64 228
  %0 = load i32, ptr %m_hueAdjust.i, align 4
  %cmp = icmp eq i32 %0, 0
  br i1 %cmp, label %land.rhs, label %land.end

land.rhs:                                         ; preds = %entry
  %1 = load ptr, ptr %other, align 8
  %m_hueAdjust.i1 = getelementptr inbounds i8, ptr %1, i64 228
  %2 = load i32, ptr %m_hueAdjust.i1, align 4
  %cmp4 = icmp eq i32 %2, 0
  br label %land.end

land.end:                                         ; preds = %land.rhs, %entry
  %3 = phi i1 [ false, %entry ], [ %cmp4, %land.rhs ]
  ret i1 %3
}